MPASM 5.86                     BASSYBASS.ASM   9-20-2024  17:08:46         PAGE  1


LOC  OBJECT CODE     LINE SOURCE TEXT
  VALUE

                      00001         ;BassyBass.asm
                      00002         ;September 12, 2024
                      00003         ;Owen Fujii
                      00004         ;Basic Setup File for the PIC16F883
                      00005 
                      00006                 #INCLUDE <p16f883.inc>                  ; processor specific variable definitions
                      00001         LIST
                      00002 
                      00003 ;==========================================================================
                      00004 ; Build date : Oct 24 2019
                      00005 ;  MPASM PIC16F883 processor include
                      00006 ; 
                      00007 ;  (c) Copyright 1999-2019 Microchip Technology, All rights reserved
                      00008 ;==========================================================================
                      00009 
                      00781         LIST
                      00007                 LIST      p=16f883                      ; list directive to define processor
                      00008                 errorlevel -302,-207,-305,-206,-203     ;suppress "not in bank 0" message,  Found label 
                            after column 1,
                      00009                                                         ;Using default destination of 1 (file),  Found c
                            all to macro in column 1
                      00010 
                      00011                 #include "p16f883.inc"
                      00782         LIST
                      00783 
                      00784 ;==========================================================================
                      00785 ; Build date : Oct 24 2019
                      00786 ;  MPASM PIC16F883 processor include
                      00787 ; 
                      00788 ;  (c) Copyright 1999-2019 Microchip Technology, All rights reserved
                      00789 ;==========================================================================
                      00790 
Message[310]: Superseding current maximum RAM and RAM map.
                      01562         LIST
                      00012 
                      00013 ; CONFIG1
                      00014 ; __config 0xF8E7
2007   20D1           00015  __CONFIG _CONFIG1, _FOSC_XT & _WDTE_OFF & _PWRTE_OFF & _MCLRE_OFF & _CP_OFF & _CPD_OFF & _BOREN_OFF & _
                            IESO_OFF & _FCMEN_OFF & _LVP_OFF
                      00016 ; CONFIG2
                      00017 ; __config 0xFFFF
2008   3FFF           00018  __CONFIG _CONFIG2, _BOR4V_BOR40V & _WRT_OFF
                      00019 ;******************************************             
                      00020 ;Define Constants
                      00021 ;******************************************
                      00022 
                      00023 #Define         BAUD            D'100'                          ;Desired Baud Rate in Kbps for I2C
                      00024 #Define         FOSC            D'16000'                        ;Oscillator Clock in KHz This must be fi
                            lled
                      00025 
                      00026 ;******************************************             
                      00027 ;Define Variable Registers
                      00028 ;******************************************
MPASM 5.86                     BASSYBASS.ASM   9-20-2024  17:08:46         PAGE  2


LOC  OBJECT CODE     LINE SOURCE TEXT
  VALUE

                      00029 
  00000020            00030         COUNT1  EQU     0x20
  00000021            00031         COUNT2  EQU     0x21
  00000022            00032         COUNT3  EQU     0x22
  00000023            00033         COUNT4  EQU     0x23
  00000024            00034         COUNT5  EQU     0x24
  00000025            00035         STEP    EQU     0x25
  00000026            00036         LEG_1   EQU     0x26
                      00037                 
                      00038 ;******************************************             
                      00039 ;Interupt Vectors
                      00040 ;******************************************
                      00041                 ORG H'000'                                      
0000   2???           00042                 GOTO SETUP                                      ;RESET CONDITION GOTO SETUP
                      00043 
                      00044 ;******************************************
                      00045 ;SETUP ROUTINE
                      00046 ;******************************************
0001                  00047 SETUP
                      00048 ;*** SFR SETUP **********
                      00049  
                      00050                 
                      00051 ;*** SET OPTION_REG: ****
0001   1683 1303      00052                 BANKSEL OPTION_REG
0003   0181           00053                 CLRF OPTION_REG
0004   30F4           00054                 MOVLW H'F4'                             ; INITIALIZE SET OF RBPU INTEDG T0SE 
0005   0081           00055                 MOVWF OPTION_REG
                      00056 ;*** SET INTCON REG: ****
0006   1283 1303      00057                 BANKSEL INTCON
0008   3040           00058                 MOVLW H'40'
0009   008B           00059                 MOVWF INTCON                            ; INIT PEIE
                      00060 ;*** SET PIE1 REG: *****
000A   1683 1303      00061                 BANKSEL PIE1
000C   3000           00062                 MOVLW H'00'                             ; INIT PIE1 CLEAR
000D   008C           00063                 MOVWF PIE1
                      00064 ;***** SET PIE2 REG: *****
000E   1683 1303      00065                 BANKSEL PIE2
0010   3000           00066                 MOVLW H'00'                             ; INIT OSFIE CLEAR OTHERS
0011   008D           00067                 MOVWF PIE2
                      00068 ;*** SET CCP1CON REG: **
0012   1283 1303      00069                 BANKSEL CCP1CON
0014   3000           00070                 MOVLW   H'000'                          ;DISABLE PWM & CCP
0015   0097           00071                 MOVWF   CCP1CON
0016   1283 1303      00072                 BANKSEL CCP2CON
0018   019D           00073                 CLRF CCP2CON
0019   1283 1703      00074                 BANKSEL CM2CON1
001B   3000           00075                 MOVLW   H'000'
001C   0089           00076                 MOVWF   CM2CON1
                      00077 
                      00078 ;*** TIMER 1 SETUP *****
001D   1283 1303      00079                 BANKSEL T1CON
001F   3000           00080                 MOVLW   H'000'                          ;
0020   0090           00081                 MOVWF   T1CON                           ;DISABLE TIMER 1
MPASM 5.86                     BASSYBASS.ASM   9-20-2024  17:08:46         PAGE  3


LOC  OBJECT CODE     LINE SOURCE TEXT
  VALUE

                      00082 
                      00083 ;*** TIMER 2 SETUP *****
                      00084 
0021   1283 1303      00085                 BANKSEL T2CON
0023   0192           00086                 CLRF    T2CON                           ;DISABLE TIMER 2, 1:1 POST SCALE, PRESCALER 1
0024   3000           00087                 MOVLW   H'000'                          ;SET PR2 FOR FULL COUNT 
0025   1683 1303      00088                 BANKSEL PR2                             ;
0027   0092           00089                 MOVWF   PR2                             ;PR2 IS SETS OUTPUT OF PWM HIGH WHEN = TMR2
                      00090  
                      00091 ;*** PORT A SETUP **** PORT B RB0 IS USED AS EDGE TRIGGERED INPUT
                      00092 
0028   1683 1303      00093                 BANKSEL ADCON1
002A   139F           00094                 BCF     ADCON1,7
002B   169F           00095                 BSF     ADCON1,5
002C   171F           00096                 BSF     ADCON1,6
002D   1283 1303      00097                 BANKSEL PORTA
002F   0185           00098                 CLRF    PORTA                           ; CLEAR PORTA
0030   1683 1303      00099                 BANKSEL TRISA
0032   30FE           00100                 MOVLW   H'FE'                           ;SET PORT A INPUT EXEPT RA0
0033   0085           00101                 MOVWF   TRISA
                      00102                 
                      00103 ;*** PORT B SETUP **** PORT B RB0 IS USED AS EDGE TRIGGERED INPUT
0034   1283 1303      00104                 BANKSEL PORTB
0036   0186           00105                 CLRF    PORTB                           ; CLEAR PORTB 
0037   1683 1303      00106                 BANKSEL TRISB
0039   30FF           00107                 MOVLW   H'FF'                           ;SET PORT B AS INPUT
003A   0086           00108                 MOVWF   TRISB
003B   1683 1703      00109                 BANKSEL ANSELH
003D   3000           00110                 MOVLW H'000'                            ; DISABLE ADC INPUTS BANK B
003E   0089           00111                 MOVWF ANSELH                            
003F   1683 1303      00112                 BANKSEL WPUB                            ; DISABLE ALL WEAK PULL UPS PORT B
0041   3000           00113                 MOVLW   H'00'
0042   0095           00114                 MOVWF   WPUB
                      00115                 
                      00116 
                      00117 ;*** PORT C SETUP **** PORT B RB0 IS USED AS EDGE TRIGGERED INPUT
0043   1283 1303      00118                 BANKSEL PORTC
0045   0187           00119                 CLRF    PORTC                           ; CLEAR PORTC
0046   1683 1303      00120                 BANKSEL TRISC
0048   3000           00121                 MOVLW   H'000'                          ;SET PORT C AS OUTPUT
0049   0087           00122                 MOVWF   TRISC
004A   2???           00123                 GOTO    MAIN                            ;END OF SETUP ROUTINE
                      00124 
                      00125 ;******************************************
                      00126 ;Main Code
                      00127 ;******************************************
004B                  00128 MAIN    
004B   1283 1303      00129         BANKSEL PORTC 
004D   0187           00130             CLRF PORTC
                      00131             
004E                  00132 KEYPAD
004E   1607           00133                 BSF PORTC, 4
004F   1A06           00134                 BTFSC PORTB,RB4                          ; CHECK INPUTS KEYPRESS OF FIRST ROW
MPASM 5.86                     BASSYBASS.ASM   9-20-2024  17:08:46         PAGE  4


LOC  OBJECT CODE     LINE SOURCE TEXT
  VALUE

0050   2???           00135                 GOTO CTHREE
0051   1A86           00136                 BTFSC PORTB,RB5
0052   2???           00137                 GOTO DTHREE
0053   1B06           00138                 BTFSC PORTB,RB6
0054   2???           00139                 GOTO ETHREE
0055   1B86           00140                 BTFSC PORTB,RB7
0056   2???           00141                 GOTO FTHREE                               ; FINISH CHECK OF M ASSOCIATED BITS
0057   1207           00142                 BCF PORTC, 4
                      00143                 
                      00144                 
                      00145                 
0058   1687           00146                 BSF PORTC, 5                         
0059   1A06           00147                 BTFSC PORTB,RB4                          
005A   2???           00148                 GOTO GTHREE
005B   1A86           00149                 BTFSC PORTB,RB5
005C   2???           00150                 GOTO ATHREE
005D   1B06           00151                 BTFSC PORTB,RB6
005E   2???           00152                 GOTO BTHREE
005F   1B86           00153                 BTFSC PORTB,RB7
0060   2???           00154                 GOTO CFOUR                               
0061   1287           00155                 BCF PORTC, 5
                      00156                 
0062   1707           00157                 BSF PORTC, 6                      
0063   2???           00158                 GOTO DFOUR
0064   1A86           00159                 BTFSC PORTB,RB5
0065   2???           00160                 GOTO EFOUR
0066   1B06           00161                 BTFSC PORTB,RB6
0067   2???           00162                 GOTO FFOUR
0068   1B86           00163                 BTFSC PORTB,RB7
0069   2???           00164                 GOTO GFOUR                          
                      00165                 
                      00166                 
                      00167                 
006A   1787           00168                 BSF PORTC, 7
006B   1A06           00169                 BTFSC PORTB,RB4                         
006C   2???           00170                 GOTO AFOUR      
006D   1A86           00171                 BTFSC PORTB,RB5
006E   2???           00172                 GOTO BFOUR
006F   1B06           00173                 BTFSC PORTB,RB6
0070   2???           00174                 GOTO CFIVE
0071   1B86           00175                 BTFSC PORTB,RB7
0072   2???           00176                 GOTO DFIVE                           
0073   1387           00177                 BCF PORTC, 7
0074   2???           00178                 GOTO KEYPAD
                      00179                 
0075                  00180 CTHREE
0075   01A1           00181                 CLRF H'21'
0076   3000           00182                 MOVLW H'00'
0077   00A1           00183                 MOVWF H'21'
0078   2???           00184                 CALL ONETONE
                      00185                 
0079                  00186 DTHREE
0079   01A1           00187                 CLRF H'21'
MPASM 5.86                     BASSYBASS.ASM   9-20-2024  17:08:46         PAGE  5


LOC  OBJECT CODE     LINE SOURCE TEXT
  VALUE

007A   3001           00188                 MOVLW H'01'
007B   00A1           00189                 MOVWF H'21'
007C   2???           00190                 CALL ONETONE
                      00191                 
007D                  00192 ETHREE
007D   01A1           00193                 CLRF H'21'
007E   3002           00194                 MOVLW H'02'
007F   00A1           00195                 MOVWF H'21'
0080   2???           00196                 CALL ONETONE
                      00197 
0081                  00198 FTHREE
0081   01A1           00199                 CLRF H'21'
0082   3003           00200                 MOVLW H'03'
0083   00A1           00201                 MOVWF H'21'
0084   2???           00202                 CALL ONETONE
                      00203                 
0085                  00204 GTHREE
0085   01A1           00205                 CLRF H'21'
0086   3004           00206                 MOVLW H'04'
0087   00A1           00207                 MOVWF H'21'
0088   2???           00208                 CALL ONETONE
                      00209 
0089                  00210 ATHREE
0089   01A1           00211                 CLRF H'21'
008A   3005           00212                 MOVLW H'05'
008B   00A1           00213                 MOVWF H'21'
008C   2???           00214                 CALL ONETONE
                      00215                 
008D                  00216 BTHREE
008D   01A1           00217                 CLRF H'21'
008E   3006           00218                 MOVLW H'06'
008F   00A1           00219                 MOVWF H'21'
0090   2???           00220                 CALL ONETONE    
                      00221                 
0091                  00222 CFOUR
0091   01A1           00223                 CLRF H'21'
0092   3007           00224                 MOVLW H'07'
0093   00A1           00225                 MOVWF H'21'
0094   2???           00226                 CALL ONETONE     
                      00227                 
0095                  00228 DFOUR
0095   01A1           00229                 CLRF H'21'
0096   3008           00230                 MOVLW H'08'
0097   00A1           00231                 MOVWF H'21'
0098   2???           00232                 CALL ONETONE
                      00233                 
0099                  00234 EFOUR
0099   01A1           00235                 CLRF H'21'
009A   3009           00236                 MOVLW H'09'
009B   00A1           00237                 MOVWF H'21'
009C   2???           00238                 CALL ONETONE
                      00239                 
009D                  00240 FFOUR
MPASM 5.86                     BASSYBASS.ASM   9-20-2024  17:08:46         PAGE  6


LOC  OBJECT CODE     LINE SOURCE TEXT
  VALUE

009D   01A1           00241                 CLRF H'21'
009E   300A           00242                 MOVLW H'0A'
009F   00A1           00243                 MOVWF H'21'
00A0   2???           00244                 CALL ONETONE
                      00245                 
00A1                  00246 GFOUR
00A1   01A1           00247                 CLRF H'21'
00A2   300B           00248                 MOVLW H'0B'
00A3   00A1           00249                 MOVWF H'21'
00A4   2???           00250                 CALL ONETONE
                      00251                 
00A5                  00252 AFOUR
00A5   01A1           00253                 CLRF H'21'
00A6   300C           00254                 MOVLW H'0C'
00A7   00A1           00255                 MOVWF H'21'
00A8   2???           00256                 CALL ONETONE
                      00257                 
00A9                  00258 BFOUR
00A9   01A1           00259                 CLRF H'21'
00AA   300D           00260                 MOVLW H'0D'
00AB   00A1           00261                 MOVWF H'21'
00AC   2???           00262                 CALL ONETONE
                      00263                 
00AD                  00264 CFIVE
00AD   01A1           00265                 CLRF H'21'
00AE   300E           00266                 MOVLW H'0E'
00AF   00A1           00267                 MOVWF H'21'
00B0   2???           00268                 CALL ONETONE
                      00269                 
00B1                  00270 DFIVE
00B1   01A1           00271                 CLRF H'21'
00B2   300F           00272                 MOVLW H'0F'
00B3   00A1           00273                 MOVWF H'21'
00B4   2???           00274                 CALL ONETONE
                      00275             
00B5                  00276 ONETONE
00B5   3001           00277             MOVLW H'01'
00B6   0087           00278             MOVWF PORTC
00B7   2???           00279             CALL DELAY    
00B8   3001           00280             MOVLW H'01'
00B9   0606           00281             XORWF PORTB,0
00BA   0087           00282             MOVWF PORTC
00BB   0085           00283             MOVWF PORTA
00BC   2???           00284             CALL DELAY    
00BD   3001           00285             MOVLW H'01'
00BE   0606           00286             XORWF PORTB,0
00BF   0087           00287             MOVWF PORTC
00C0   0085           00288             MOVWF PORTA
00C1   2???           00289             GOTO KEYPAD     
                      00290             
                      00291            
00C2                  00292 DELAY
00C2   0821           00293             MOVF H'21',0
MPASM 5.86                     BASSYBASS.ASM   9-20-2024  17:08:46         PAGE  7


LOC  OBJECT CODE     LINE SOURCE TEXT
  VALUE

00C3   2???           00294             CALL TABLE
00C4   0091           00295             MOVWF TMR2
00C5                  00296 LOOP2
00C5   0181           00297             CLRF TMR0
00C6                  00298 LOOP1
00C6   0000           00299             NOP
00C7   0000           00300             NOP
00C8   0000           00301             NOP
00C9   0B81           00302             DECFSZ TMR0
00CA   2???           00303             GOTO LOOP1
00CB   0B91           00304             DECFSZ TMR2
00CC   2???           00305             GOTO LOOP2
00CD   0821           00306             MOVF H'21',0
00CE   2???           00307             CALL TABLETWO
00CF   0081           00308             MOVWF TMR0
00D0                  00309 LOOP3
00D0   0000           00310             NOP
00D1   0000           00311             NOP
00D2   0000           00312             NOP
00D3   0B81           00313             DECFSZ TMR0
00D4   2???           00314             GOTO LOOP3
00D5   0008           00315             RETURN
                      00316             
                      00317            
00D6                  00318 TABLE
00D6   0782           00319             ADDWF PCL,1
00D7   3407           00320             RETLW H'07' ;E1
00D8   3407           00321             RETLW H'07' ;F1
00D9   3407           00322             RETLW H'07' ;F#1
00DA   3406           00323             RETLW H'06' ;G1
00DB   3406           00324             RETLW H'06' ;G#1
00DC   3405           00325             RETLW H'05' ;A1
00DD   3405           00326             RETLW H'05' ;A#1
00DE   3405           00327             RETLW H'05' ;B1
00DF   3404           00328             RETLW H'04' ;C2
00E0   3404           00329             RETLW H'04' ;C#2
00E1   3404           00330             RETLW H'04' ;D2
00E2   3404           00331             RETLW H'04' ;D#2
00E3   3403           00332             RETLW H'03' ;A4
00E4   3401           00333             RETLW H'01' ;B4
00E5   3401           00334             RETLW H'01' ;C5
00E6   3401           00335             RETLW H'01' ;D5
                      00336             
00E7                  00337 TABLETWO
00E7   0782           00338             ADDWF PCL,1
00E8   34E7           00339             RETLW H'E7' ;E1 0
00E9   34A5           00340             RETLW H'A5' ;F1 1
00EA   340A           00341             RETLW H'0A' ;F#1 2
00EB   34A5           00342             RETLW H'A5' ;G1 3
00EC   3445           00343             RETLW H'45' ;G#1 4
00ED   34EB           00344             RETLW H'EB' ;A1 5
00EE   348A           00345             RETLW H'8A' ;A#1 6
00EF   3446           00346             RETLW H'46' ;B1 7
MPASM 5.86                     BASSYBASS.ASM   9-20-2024  17:08:46         PAGE  8


LOC  OBJECT CODE     LINE SOURCE TEXT
  VALUE

00F0   34FA           00347             RETLW H'FA' ;C2 8
00F1   34B2           00348             RETLW H'B2' ;C#2 9
00F2   346F           00349             RETLW H'6F' ;D2 A
00F3   342F           00350             RETLW H'2F' ;D#2 B
00F4   34F2           00351             RETLW H'F2' ;E2 C
00F5   3442           00352             RETLW H'42' ; D 
00F6   342E           00353             RETLW H'2E' ;C5 E
00F7   340B           00354             RETLW H'0B' ;D5 F
                      00355             
                      00356             
                      00357             
                      00358             
                      00359             
Warning[205]: Found directive in column 1. (END)
20D1 3FFF             00360 END
MPASM 5.86                     BASSYBASS.ASM   9-20-2024  17:08:46         PAGE  9


SYMBOL TABLE
  LABEL                             VALUE 

ABDEN                             00000000
ABDOVF                            00000007
ACKDT                             00000005
ACKEN                             00000004
ACKSTAT                           00000006
ADCON0                            0000001F
ADCON1                            0000009F
ADCS0                             00000006
ADCS1                             00000007
ADDEN                             00000003
ADFM                              00000007
ADIE                              00000006
ADIF                              00000006
ADON                              00000000
ADRESH                            0000001E
ADRESL                            0000009E
AFOUR                             000000A5
ANS0                              00000000
ANS1                              00000001
ANS10                             00000002
ANS11                             00000003
ANS12                             00000004
ANS13                             00000005
ANS2                              00000002
ANS3                              00000003
ANS4                              00000004
ANS8                              00000000
ANS9                              00000001
ANSEL                             00000188
ANSELH                            00000189
ATHREE                            00000089
BAUD                              D'100'
BAUDCTL                           00000187
BCLIE                             00000003
BCLIF                             00000003
BF                                00000000
BFOUR                             000000A9
BRG0                              00000000
BRG1                              00000001
BRG10                             00000002
BRG11                             00000003
BRG12                             00000004
BRG13                             00000005
BRG14                             00000006
BRG15                             00000007
BRG16                             00000003
BRG2                              00000002
BRG3                              00000003
BRG4                              00000004
BRG5                              00000005
BRG6                              00000006
BRG7                              00000007
BRG8                              00000000
MPASM 5.86                     BASSYBASS.ASM   9-20-2024  17:08:46         PAGE 10


SYMBOL TABLE
  LABEL                             VALUE 

BRG9                              00000001
BRGH                              00000002
BTHREE                            0000008D
C                                 00000000
C1CH0                             00000000
C1CH1                             00000001
C1IE                              00000005
C1IF                              00000005
C1OE                              00000005
C1ON                              00000007
C1OUT                             00000006
C1POL                             00000004
C1R                               00000002
C1RSEL                            00000005
C1SEN                             00000005
C2CH0                             00000000
C2CH1                             00000001
C2IE                              00000006
C2IF                              00000006
C2OE                              00000005
C2ON                              00000007
C2OUT                             00000006
C2POL                             00000004
C2R                               00000002
C2REN                             00000004
C2RSEL                            00000004
C2SYNC                            00000000
CCP1CON                           00000017
CCP1IE                            00000002
CCP1IF                            00000002
CCP1M0                            00000000
CCP1M1                            00000001
CCP1M2                            00000002
CCP1M3                            00000003
CCP1X                             00000005
CCP1Y                             00000004
CCP2CON                           0000001D
CCP2IE                            00000000
CCP2IF                            00000000
CCP2M0                            00000000
CCP2M1                            00000001
CCP2M2                            00000002
CCP2M3                            00000003
CCP2X                             00000005
CCP2Y                             00000004
CCPR1                             00000015
CCPR1H                            00000016
CCPR1L                            00000015
CCPR2                             0000001B
CCPR2H                            0000001C
CCPR2L                            0000001B
CFIVE                             000000AD
CFOUR                             00000091
MPASM 5.86                     BASSYBASS.ASM   9-20-2024  17:08:46         PAGE 11


SYMBOL TABLE
  LABEL                             VALUE 

CHS0                              00000002
CHS1                              00000003
CHS2                              00000004
CHS3                              00000005
CKE                               00000006
CKP                               00000004
CM1CON0                           00000107
CM2CON0                           00000108
CM2CON1                           00000109
COUNT1                            00000020
COUNT2                            00000021
COUNT3                            00000022
COUNT4                            00000023
COUNT5                            00000024
CREN                              00000004
CSRC                              00000007
CTHREE                            00000075
D                                 00000005
DATA_ADDRESS                      00000005
DC                                00000001
DC1B0                             00000004
DC1B1                             00000005
DC2B0                             00000004
DC2B1                             00000005
DELAY                             000000C2
DFIVE                             000000B1
DFOUR                             00000095
DTHREE                            00000079
D_A                               00000005
D_NOT_A                           00000005
ECCPAS                            0000009C
ECCPAS0                           00000004
ECCPAS1                           00000005
ECCPAS2                           00000006
ECCPASE                           00000007
EEADR                             0000010D
EEADRH                            0000010F
EECON1                            0000018C
EECON2                            0000018D
EEDAT                             0000010C
EEDATA                            0000010C
EEDATH                            0000010E
EEIE                              00000004
EEIF                              00000004
EEPGD                             00000007
EFOUR                             00000099
ETHREE                            0000007D
F                                 00000001
FERR                              00000002
FFOUR                             0000009D
FOSC                              D'16000'
FSR                               00000004
FTHREE                            00000081
MPASM 5.86                     BASSYBASS.ASM   9-20-2024  17:08:46         PAGE 12


SYMBOL TABLE
  LABEL                             VALUE 

FVREN                             00000000
GCEN                              00000007
GFOUR                             000000A1
GIE                               00000007
GO                                00000001
GO_DONE                           00000001
GO_NOT_DONE                       00000001
GTHREE                            00000085
HTS                               00000002
I2C_DATA                          00000005
I2C_READ                          00000002
I2C_START                         00000003
I2C_STOP                          00000004
INDF                              00000000
INTCON                            0000000B
INTE                              00000004
INTEDG                            00000006
INTF                              00000001
IOCB                              00000096
IOCB0                             00000000
IOCB1                             00000001
IOCB2                             00000002
IOCB3                             00000003
IOCB4                             00000004
IOCB5                             00000005
IOCB6                             00000006
IOCB7                             00000007
IRCF0                             00000004
IRCF1                             00000005
IRCF2                             00000006
IRP                               00000007
KEYPAD                            0000004E
LEG_1                             00000026
LOOP1                             000000C6
LOOP2                             000000C5
LOOP3                             000000D0
LTS                               00000001
MAIN                              0000004B
MC1OUT                            00000007
MC2OUT                            00000006
MSK                               00000093
MSK0                              00000000
MSK1                              00000001
MSK2                              00000002
MSK3                              00000003
MSK4                              00000004
MSK5                              00000005
MSK6                              00000006
MSK7                              00000007
NOT_A                             00000005
NOT_ADDRESS                       00000005
NOT_BO                            00000000
NOT_BOR                           00000000
MPASM 5.86                     BASSYBASS.ASM   9-20-2024  17:08:46         PAGE 13


SYMBOL TABLE
  LABEL                             VALUE 

NOT_DONE                          00000001
NOT_PD                            00000003
NOT_POR                           00000001
NOT_RBPU                          00000007
NOT_RC8                           00000006
NOT_T1SYNC                        00000002
NOT_TO                            00000004
NOT_TX8                           00000006
NOT_W                             00000002
NOT_WRITE                         00000002
OERR                              00000001
ONETONE                           000000B5
OPTION_REG                        00000081
OSCCON                            0000008F
OSCTUNE                           00000090
OSFIE                             00000007
OSFIF                             00000007
OSTS                              00000003
P                                 00000004
P1M0                              00000006
P1M1                              00000007
PCL                               00000002
PCLATH                            0000000A
PCON                              0000008E
PDC0                              00000000
PDC1                              00000001
PDC2                              00000002
PDC3                              00000003
PDC4                              00000004
PDC5                              00000005
PDC6                              00000006
PEIE                              00000006
PEN                               00000002
PIE1                              0000008C
PIE2                              0000008D
PIR1                              0000000C
PIR2                              0000000D
PORTA                             00000005
PORTB                             00000006
PORTC                             00000007
PORTE                             00000009
PR2                               00000092
PRSEN                             00000007
PS0                               00000000
PS1                               00000001
PS2                               00000002
PSA                               00000003
PSSAC0                            00000002
PSSAC1                            00000003
PSSBD0                            00000000
PSSBD1                            00000001
PSTRCON                           0000009D
PULSR                             00000002
MPASM 5.86                     BASSYBASS.ASM   9-20-2024  17:08:46         PAGE 14


SYMBOL TABLE
  LABEL                             VALUE 

PULSS                             00000003
PWM1CON                           0000009B
R                                 00000002
RA0                               00000000
RA1                               00000001
RA2                               00000002
RA3                               00000003
RA4                               00000004
RA5                               00000005
RA6                               00000006
RA7                               00000007
RB0                               00000000
RB1                               00000001
RB2                               00000002
RB3                               00000003
RB4                               00000004
RB5                               00000005
RB6                               00000006
RB7                               00000007
RBIE                              00000003
RBIF                              00000000
RC0                               00000000
RC1                               00000001
RC2                               00000002
RC3                               00000003
RC4                               00000004
RC5                               00000005
RC6                               00000006
RC7                               00000007
RC8_9                             00000006
RC9                               00000006
RCD8                              00000000
RCEN                              00000003
RCIDL                             00000006
RCIE                              00000005
RCIF                              00000005
RCREG                             0000001A
RCSTA                             00000018
RD                                00000000
RE3                               00000003
READ_WRITE                        00000002
RP0                               00000005
RP1                               00000006
RSEN                              00000001
RX9                               00000006
RX9D                              00000000
R_NOT_W                           00000002
R_W                               00000002
S                                 00000003
SBOREN                            00000004
SCKP                              00000004
SCS                               00000000
SEN                               00000000
MPASM 5.86                     BASSYBASS.ASM   9-20-2024  17:08:46         PAGE 15


SYMBOL TABLE
  LABEL                             VALUE 

SENDB                             00000003
SETUP                             00000001
SMP                               00000007
SPBRG                             00000099
SPBRGH                            0000009A
SPEN                              00000007
SR0                               00000006
SR1                               00000007
SRCON                             00000185
SREN                              00000005
SSPADD                            00000093
SSPBUF                            00000013
SSPCON                            00000014
SSPCON2                           00000091
SSPEN                             00000005
SSPIE                             00000003
SSPIF                             00000003
SSPM0                             00000000
SSPM1                             00000001
SSPM2                             00000002
SSPM3                             00000003
SSPMSK                            00000093
SSPOV                             00000006
SSPSTAT                           00000094
STATUS                            00000003
STEP                              00000025
STRA                              00000000
STRB                              00000001
STRC                              00000002
STRD                              00000003
STRSYNC                           00000004
SWDTEN                            00000000
SYNC                              00000004
T0CS                              00000005
T0IE                              00000005
T0IF                              00000002
T0SE                              00000004
T1CKPS0                           00000004
T1CKPS1                           00000005
T1CON                             00000010
T1GINV                            00000007
T1GIV                             00000007
T1GSS                             00000001
T1INSYNC                          00000002
T1OSCEN                           00000003
T1SYNC                            00000002
T2CKPS0                           00000000
T2CKPS1                           00000001
T2CON                             00000012
TABLE                             000000D6
TABLETWO                          000000E7
TMR0                              00000001
TMR0IE                            00000005
MPASM 5.86                     BASSYBASS.ASM   9-20-2024  17:08:46         PAGE 16


SYMBOL TABLE
  LABEL                             VALUE 

TMR0IF                            00000002
TMR1                              0000000E
TMR1CS                            00000001
TMR1GE                            00000006
TMR1H                             0000000F
TMR1IE                            00000000
TMR1IF                            00000000
TMR1L                             0000000E
TMR1ON                            00000000
TMR2                              00000011
TMR2IE                            00000001
TMR2IF                            00000001
TMR2ON                            00000002
TOUTPS0                           00000003
TOUTPS1                           00000004
TOUTPS2                           00000005
TOUTPS3                           00000006
TRISA                             00000085
TRISA0                            00000000
TRISA1                            00000001
TRISA2                            00000002
TRISA3                            00000003
TRISA4                            00000004
TRISA5                            00000005
TRISA6                            00000006
TRISA7                            00000007
TRISB                             00000086
TRISB0                            00000000
TRISB1                            00000001
TRISB2                            00000002
TRISB3                            00000003
TRISB4                            00000004
TRISB5                            00000005
TRISB6                            00000006
TRISB7                            00000007
TRISC                             00000087
TRISC0                            00000000
TRISC1                            00000001
TRISC2                            00000002
TRISC3                            00000003
TRISC4                            00000004
TRISC5                            00000005
TRISC6                            00000006
TRISC7                            00000007
TRISE                             00000089
TRISE3                            00000003
TRMT                              00000001
TUN0                              00000000
TUN1                              00000001
TUN2                              00000002
TUN3                              00000003
TUN4                              00000004
TX8_9                             00000006
MPASM 5.86                     BASSYBASS.ASM   9-20-2024  17:08:46         PAGE 17


SYMBOL TABLE
  LABEL                             VALUE 

TX9                               00000006
TX9D                              00000000
TXD8                              00000000
TXEN                              00000005
TXIE                              00000004
TXIF                              00000004
TXREG                             00000019
TXSTA                             00000098
UA                                00000001
ULPWUE                            00000005
ULPWUIE                           00000002
ULPWUIF                           00000002
VCFG0                             00000004
VCFG1                             00000005
VR0                               00000000
VR1                               00000001
VR2                               00000002
VR3                               00000003
VRCON                             00000097
VREN                              00000007
VROE                              00000006
VRR                               00000005
VRSS                              00000004
W                                 00000000
WCOL                              00000007
WDTCON                            00000105
WDTPS0                            00000001
WDTPS1                            00000002
WDTPS2                            00000003
WDTPS3                            00000004
WPUB                              00000095
WPUB0                             00000000
WPUB1                             00000001
WPUB2                             00000002
WPUB3                             00000003
WPUB4                             00000004
WPUB5                             00000005
WPUB6                             00000006
WPUB7                             00000007
WR                                00000001
WREN                              00000002
WRERR                             00000003
WUE                               00000001
Z                                 00000002
_BOR21V                           00003EFF
_BOR40V                           00003FFF
_BOR4V_BOR21V                     00003EFF
_BOR4V_BOR40V                     00003FFF
_BOREN_NSLEEP                     00003EFF
_BOREN_OFF                        00003CFF
_BOREN_ON                         00003FFF
_BOREN_SBODEN                     00003DFF
_BOR_NSLEEP                       00003EFF
MPASM 5.86                     BASSYBASS.ASM   9-20-2024  17:08:46         PAGE 18


SYMBOL TABLE
  LABEL                             VALUE 

_BOR_OFF                          00003CFF
_BOR_ON                           00003FFF
_BOR_SBODEN                       00003DFF
_CONFIG1                          00002007
_CONFIG2                          00002008
_CPD_OFF                          00003FFF
_CPD_ON                           00003F7F
_CP_OFF                           00003FFF
_CP_ON                            00003FBF
_DEBUG_OFF                        00003FFF
_DEBUG_ON                         00001FFF
_DEVID1                           00002006
_EC_OSC                           00003FFB
_EXTRC                            00003FFF
_EXTRCIO                          00003FFE
_EXTRC_OSC_CLKOUT                 00003FFF
_EXTRC_OSC_NOCLKOUT               00003FFE
_FCMEN_OFF                        000037FF
_FCMEN_ON                         00003FFF
_FOSC_EC                          00003FFB
_FOSC_EXTRC_CLKOUT                00003FFF
_FOSC_EXTRC_NOCLKOUT              00003FFE
_FOSC_HS                          00003FFA
_FOSC_INTRC_CLKOUT                00003FFD
_FOSC_INTRC_NOCLKOUT              00003FFC
_FOSC_LP                          00003FF8
_FOSC_XT                          00003FF9
_HS_OSC                           00003FFA
_IDLOC0                           00002000
_IDLOC1                           00002001
_IDLOC2                           00002002
_IDLOC3                           00002003
_IESO_OFF                         00003BFF
_IESO_ON                          00003FFF
_INTOSC                           00003FFD
_INTOSCIO                         00003FFC
_INTRC_OSC_CLKOUT                 00003FFD
_INTRC_OSC_NOCLKOUT               00003FFC
_LP_OSC                           00003FF8
_LVP_OFF                          00002FFF
_LVP_ON                           00003FFF
_MCLRE_OFF                        00003FDF
_MCLRE_ON                         00003FFF
_PWRTE_OFF                        00003FFF
_PWRTE_ON                         00003FEF
_WDTE_OFF                         00003FF7
_WDTE_ON                          00003FFF
_WDT_OFF                          00003FF7
_WDT_ON                           00003FFF
_WRT_1FOURTH                      00003BFF
_WRT_256                          00003DFF
_WRT_HALF                         000039FF
_WRT_OFF                          00003FFF
MPASM 5.86                     BASSYBASS.ASM   9-20-2024  17:08:46         PAGE 19


SYMBOL TABLE
  LABEL                             VALUE 

_XT_OSC                           00003FF9
__16F883                          00000001

Errors   :     0
Warnings :     1 reported,     7 suppressed
Messages :     1 reported,    17 suppressed

